target datalayout = "e-m:e-p270:32:32-p271:32:32-p272:64:64-i64:64-i128:128-f80:128-n8:16:32:64-S128"
target triple = "x86_64-pc-linux-gnu"

@hf_netlogon_group_rid = internal global i32 0, align 4
@hf_netlogon_security_information = internal global i32 0, align 4
@hf_netlogon_reserved = internal global i32 0, align 4
@hf_netlogon_group_desc = internal global i32 0, align 4
@hf_netlogon_group_name = internal global i32 0, align 4
@hf_netlogon_dummy = internal global i32 0, align 4
@ett_GROUP_MEMBERSHIP = internal global i32 0, align 4
@.str.893 = private unnamed_addr constant [18 x i8] c"GROUP_MEMBERSHIP:\00", align 1

; Function Attrs: null_pointer_is_valid sspstrong uwtable
define internal i32 @netlogon_dissect_GROUP_MEMBERSHIP(ptr noundef %0, i32 noundef %1, ptr noundef %2, ptr noundef %3, ptr noundef %4, ptr noundef %5) #0 {
  %7 = alloca ptr, align 8
  %8 = alloca i32, align 4
  %9 = alloca ptr, align 8
  %10 = alloca ptr, align 8
  %11 = alloca ptr, align 8
  %12 = alloca ptr, align 8
  %13 = alloca ptr, align 8
  %14 = alloca ptr, align 8
  store ptr %0, ptr %7, align 8
  store i32 %1, ptr %8, align 4
  store ptr %2, ptr %9, align 8
  store ptr %3, ptr %10, align 8
  store ptr %4, ptr %11, align 8
  store ptr %5, ptr %12, align 8
  call void @llvm.lifetime.start.p0(i64 8, ptr %13) #15
  store ptr null, ptr %13, align 8
  call void @llvm.lifetime.start.p0(i64 8, ptr %14) #15
  store ptr null, ptr %14, align 8
  %15 = load ptr, ptr %10, align 8
  %16 = icmp ne ptr %15, null
  br i1 %16, label %17, label %23

17:                                               ; preds = %6
  %18 = load ptr, ptr %10, align 8
  %19 = load ptr, ptr %7, align 8
  %20 = load i32, ptr %8, align 4
  %21 = load i32, ptr @ett_GROUP_MEMBERSHIP, align 4
  %22 = call ptr @proto_tree_add_subtree(ptr noundef %18, ptr noundef %19, i32 noundef %20, i32 noundef 0, i32 noundef %21, ptr noundef %13, ptr noundef @.str.893)
  store ptr %22, ptr %14, align 8
  br label %23

23:                                               ; preds = %17, %6
  %24 = load ptr, ptr %7, align 8
  %25 = load i32, ptr %8, align 4
  %26 = load ptr, ptr %9, align 8
  %27 = load ptr, ptr %14, align 8
  %28 = load ptr, ptr %11, align 8
  %29 = load ptr, ptr %12, align 8
  %30 = load i32, ptr @hf_netlogon_group_rid, align 4
  %31 = call i32 @dissect_ndr_uint32(ptr noundef %24, i32 noundef %25, ptr noundef %26, ptr noundef %27, ptr noundef %28, ptr noundef %29, i32 noundef %30, ptr noundef null)
  store i32 %31, ptr %8, align 4
  %32 = load ptr, ptr %7, align 8
  %33 = load i32, ptr %8, align 4
  %34 = load ptr, ptr %9, align 8
  %35 = load ptr, ptr %14, align 8
  %36 = load ptr, ptr %11, align 8
  %37 = load ptr, ptr %12, align 8
  %38 = call i32 @dissect_ndr_nt_SE_GROUP_ATTRIBUTES(ptr noundef %32, i32 noundef %33, ptr noundef %34, ptr noundef %35, ptr noundef %36, ptr noundef %37)
  store i32 %38, ptr %8, align 4
  %39 = load i32, ptr %8, align 4
  call void @llvm.lifetime.end.p0(i64 8, ptr %14) #15
  call void @llvm.lifetime.end.p0(i64 8, ptr %13) #15
  ret i32 %39
}

; Function Attrs: null_pointer_is_valid sspstrong uwtable
define internal i32 @netlogon_dissect_DELTA_GROUP(ptr noundef %0, i32 noundef %1, ptr noundef %2, ptr noundef %3, ptr noundef %4, ptr noundef %5) #0 {
  %7 = alloca ptr, align 8
  %8 = alloca i32, align 4
  %9 = alloca ptr, align 8
  %10 = alloca ptr, align 8
  %11 = alloca ptr, align 8
  %12 = alloca ptr, align 8
  store ptr %0, ptr %7, align 8
  store i32 %1, ptr %8, align 4
  store ptr %2, ptr %9, align 8
  store ptr %3, ptr %10, align 8
  store ptr %4, ptr %11, align 8
  store ptr %5, ptr %12, align 8
  %13 = load ptr, ptr %7, align 8
  %14 = load i32, ptr %8, align 4
  %15 = load ptr, ptr %9, align 8
  %16 = load ptr, ptr %10, align 8
  %17 = load ptr, ptr %11, align 8
  %18 = load ptr, ptr %12, align 8
  %19 = load i32, ptr @hf_netlogon_group_name, align 4
  %20 = call i32 @dissect_ndr_counted_string(ptr noundef %13, i32 noundef %14, ptr noundef %15, ptr noundef %16, ptr noundef %17, ptr noundef %18, i32 noundef %19, i32 noundef 3)
  store i32 %20, ptr %8, align 4
  %21 = load ptr, ptr %7, align 8
  %22 = load i32, ptr %8, align 4
  %23 = load ptr, ptr %9, align 8
  %24 = load ptr, ptr %10, align 8
  %25 = load ptr, ptr %11, align 8
  %26 = load ptr, ptr %12, align 8
  %27 = call i32 @netlogon_dissect_GROUP_MEMBERSHIP(ptr noundef %21, i32 noundef %22, ptr noundef %23, ptr noundef %24, ptr noundef %25, ptr noundef %26)
  store i32 %27, ptr %8, align 4
  %28 = load ptr, ptr %7, align 8
  %29 = load i32, ptr %8, align 4
  %30 = load ptr, ptr %9, align 8
  %31 = load ptr, ptr %10, align 8
  %32 = load ptr, ptr %11, align 8
  %33 = load ptr, ptr %12, align 8
  %34 = load i32, ptr @hf_netlogon_group_desc, align 4
  %35 = call i32 @dissect_ndr_counted_string(ptr noundef %28, i32 noundef %29, ptr noundef %30, ptr noundef %31, ptr noundef %32, ptr noundef %33, i32 noundef %34, i32 noundef 0)
  store i32 %35, ptr %8, align 4
  %36 = load ptr, ptr %7, align 8
  %37 = load i32, ptr %8, align 4
  %38 = load ptr, ptr %9, align 8
  %39 = load ptr, ptr %10, align 8
  %40 = load ptr, ptr %11, align 8
  %41 = load ptr, ptr %12, align 8
  %42 = load i32, ptr @hf_netlogon_security_information, align 4
  %43 = call i32 @dissect_ndr_uint32(ptr noundef %36, i32 noundef %37, ptr noundef %38, ptr noundef %39, ptr noundef %40, ptr noundef %41, i32 noundef %42, ptr noundef null)
  store i32 %43, ptr %8, align 4
  %44 = load ptr, ptr %7, align 8
  %45 = load i32, ptr %8, align 4
  %46 = load ptr, ptr %9, align 8
  %47 = load ptr, ptr %10, align 8
  %48 = load ptr, ptr %11, align 8
  %49 = load ptr, ptr %12, align 8
  %50 = call i32 @lsarpc_dissect_sec_desc_buf(ptr noundef %44, i32 noundef %45, ptr noundef %46, ptr noundef %47, ptr noundef %48, ptr noundef %49)
  store i32 %50, ptr %8, align 4
  %51 = load ptr, ptr %7, align 8
  %52 = load i32, ptr %8, align 4
  %53 = load ptr, ptr %9, align 8
  %54 = load ptr, ptr %10, align 8
  %55 = load ptr, ptr %11, align 8
  %56 = load ptr, ptr %12, align 8
  %57 = load i32, ptr @hf_netlogon_dummy, align 4
  %58 = call i32 @dissect_ndr_counted_string(ptr noundef %51, i32 noundef %52, ptr noundef %53, ptr noundef %54, ptr noundef %55, ptr noundef %56, i32 noundef %57, i32 noundef 0)
  store i32 %58, ptr %8, align 4
  %59 = load ptr, ptr %7, align 8
  %60 = load i32, ptr %8, align 4
  %61 = load ptr, ptr %9, align 8
  %62 = load ptr, ptr %10, align 8
  %63 = load ptr, ptr %11, align 8
  %64 = load ptr, ptr %12, align 8
  %65 = load i32, ptr @hf_netlogon_dummy, align 4
  %66 = call i32 @dissect_ndr_counted_string(ptr noundef %59, i32 noundef %60, ptr noundef %61, ptr noundef %62, ptr noundef %63, ptr noundef %64, i32 noundef %65, i32 noundef 0)
  store i32 %66, ptr %8, align 4
  %67 = load ptr, ptr %7, align 8
  %68 = load i32, ptr %8, align 4
  %69 = load ptr, ptr %9, align 8
  %70 = load ptr, ptr %10, align 8
  %71 = load ptr, ptr %11, align 8
  %72 = load ptr, ptr %12, align 8
  %73 = load i32, ptr @hf_netlogon_dummy, align 4
  %74 = call i32 @dissect_ndr_counted_string(ptr noundef %67, i32 noundef %68, ptr noundef %69, ptr noundef %70, ptr noundef %71, ptr noundef %72, i32 noundef %73, i32 noundef 0)
  store i32 %74, ptr %8, align 4
  %75 = load ptr, ptr %7, align 8
  %76 = load i32, ptr %8, align 4
  %77 = load ptr, ptr %9, align 8
  %78 = load ptr, ptr %10, align 8
  %79 = load ptr, ptr %11, align 8
  %80 = load ptr, ptr %12, align 8
  %81 = load i32, ptr @hf_netlogon_dummy, align 4
  %82 = call i32 @dissect_ndr_counted_string(ptr noundef %75, i32 noundef %76, ptr noundef %77, ptr noundef %78, ptr noundef %79, ptr noundef %80, i32 noundef %81, i32 noundef 0)
  store i32 %82, ptr %8, align 4
  %83 = load ptr, ptr %7, align 8
  %84 = load i32, ptr %8, align 4
  %85 = load ptr, ptr %9, align 8
  %86 = load ptr, ptr %10, align 8
  %87 = load ptr, ptr %11, align 8
  %88 = load ptr, ptr %12, align 8
  %89 = load i32, ptr @hf_netlogon_reserved, align 4
  %90 = call i32 @dissect_ndr_uint32(ptr noundef %83, i32 noundef %84, ptr noundef %85, ptr noundef %86, ptr noundef %87, ptr noundef %88, i32 noundef %89, ptr noundef null)
  store i32 %90, ptr %8, align 4
  %91 = load ptr, ptr %7, align 8
  %92 = load i32, ptr %8, align 4
  %93 = load ptr, ptr %9, align 8
  %94 = load ptr, ptr %10, align 8
  %95 = load ptr, ptr %11, align 8
  %96 = load ptr, ptr %12, align 8
  %97 = load i32, ptr @hf_netlogon_reserved, align 4
  %98 = call i32 @dissect_ndr_uint32(ptr noundef %91, i32 noundef %92, ptr noundef %93, ptr noundef %94, ptr noundef %95, ptr noundef %96, i32 noundef %97, ptr noundef null)
  store i32 %98, ptr %8, align 4
  %99 = load ptr, ptr %7, align 8
  %100 = load i32, ptr %8, align 4
  %101 = load ptr, ptr %9, align 8
  %102 = load ptr, ptr %10, align 8
  %103 = load ptr, ptr %11, align 8
  %104 = load ptr, ptr %12, align 8
  %105 = load i32, ptr @hf_netlogon_reserved, align 4
  %106 = call i32 @dissect_ndr_uint32(ptr noundef %99, i32 noundef %100, ptr noundef %101, ptr noundef %102, ptr noundef %103, ptr noundef %104, i32 noundef %105, ptr noundef null)
  store i32 %106, ptr %8, align 4
  %107 = load ptr, ptr %7, align 8
  %108 = load i32, ptr %8, align 4
  %109 = load ptr, ptr %9, align 8
  %110 = load ptr, ptr %10, align 8
  %111 = load ptr, ptr %11, align 8
  %112 = load ptr, ptr %12, align 8
  %113 = load i32, ptr @hf_netlogon_reserved, align 4
  %114 = call i32 @dissect_ndr_uint32(ptr noundef %107, i32 noundef %108, ptr noundef %109, ptr noundef %110, ptr noundef %111, ptr noundef %112, i32 noundef %113, ptr noundef null)
  store i32 %114, ptr %8, align 4
  %115 = load i32, ptr %8, align 4
  ret i32 %115
}