; Function Attrs: null_pointer_is_valid sspstrong uwtable
define internal i32 @netlogon_dissect_DELTA_GROUP(ptr noundef %0, i32 noundef %1, ptr noundef %2, ptr noundef %3, ptr noundef %4, ptr noundef %5) #0 {
  %7 = alloca ptr, align 8
  %8 = load i32, ptr @hf_netlogon_group_name, align 4
  %9 = tail call i32 @dissect_ndr_counted_string(ptr noundef %0, i32 noundef %1, ptr noundef %2, ptr noundef %3, ptr noundef %4, ptr noundef %5, i32 noundef %8, i32 noundef 3)
  call void @llvm.lifetime.start.p0(i64 8, ptr nonnull %7) #15
  store ptr null, ptr %7, align 8
  %.not.i = icmp eq ptr %3, null
  br i1 %.not.i, label %netlogon_dissect_GROUP_MEMBERSHIP.exit, label %10

10:                                               ; preds = %6
  %11 = load i32, ptr @ett_GROUP_MEMBERSHIP, align 4
  %12 = call ptr @proto_tree_add_subtree(ptr noundef nonnull %3, ptr noundef %0, i32 noundef %9, i32 noundef 0, i32 noundef %11, ptr noundef nonnull %7, ptr noundef nonnull @.str.893)
  br label %netlogon_dissect_GROUP_MEMBERSHIP.exit

netlogon_dissect_GROUP_MEMBERSHIP.exit:           ; preds = %6, %10
  %.0.i = phi ptr [ %12, %10 ], [ null, %6 ]
  %13 = load i32, ptr @hf_netlogon_group_rid, align 4
  %14 = call i32 @dissect_ndr_uint32(ptr noundef %0, i32 noundef %9, ptr noundef %2, ptr noundef %.0.i, ptr noundef %4, ptr noundef %5, i32 noundef %13, ptr noundef null)
  %15 = call i32 @dissect_ndr_nt_SE_GROUP_ATTRIBUTES(ptr noundef %0, i32 noundef %14, ptr noundef %2, ptr noundef %.0.i, ptr noundef %4, ptr noundef %5)
  call void @llvm.lifetime.end.p0(i64 8, ptr nonnull %7) #15
  %16 = load i32, ptr @hf_netlogon_group_desc, align 4
  %17 = call i32 @dissect_ndr_counted_string(ptr noundef %0, i32 noundef %15, ptr noundef %2, ptr noundef %3, ptr noundef %4, ptr noundef %5, i32 noundef %16, i32 noundef 0)
  %18 = load i32, ptr @hf_netlogon_security_information, align 4
  %19 = call i32 @dissect_ndr_uint32(ptr noundef %0, i32 noundef %17, ptr noundef %2, ptr noundef %3, ptr noundef %4, ptr noundef %5, i32 noundef %18, ptr noundef null)
  %20 = call i32 @lsarpc_dissect_sec_desc_buf(ptr noundef %0, i32 noundef %19, ptr noundef %2, ptr noundef %3, ptr noundef %4, ptr noundef %5)
  %21 = load i32, ptr @hf_netlogon_dummy, align 4
  %22 = call i32 @dissect_ndr_counted_string(ptr noundef %0, i32 noundef %20, ptr noundef %2, ptr noundef %3, ptr noundef %4, ptr noundef %5, i32 noundef %21, i32 noundef 0)
  %23 = load i32, ptr @hf_netlogon_dummy, align 4
  %24 = call i32 @dissect_ndr_counted_string(ptr noundef %0, i32 noundef %22, ptr noundef %2, ptr noundef %3, ptr noundef %4, ptr noundef %5, i32 noundef %23, i32 noundef 0)
  %25 = load i32, ptr @hf_netlogon_dummy, align 4
  %26 = call i32 @dissect_ndr_counted_string(ptr noundef %0, i32 noundef %24, ptr noundef %2, ptr noundef %3, ptr noundef %4, ptr noundef %5, i32 noundef %25, i32 noundef 0)
  %27 = load i32, ptr @hf_netlogon_dummy, align 4
  %28 = call i32 @dissect_ndr_counted_string(ptr noundef %0, i32 noundef %26, ptr noundef %2, ptr noundef %3, ptr noundef %4, ptr noundef %5, i32 noundef %27, i32 noundef 0)
  %29 = load i32, ptr @hf_netlogon_reserved, align 4
  %30 = call i32 @dissect_ndr_uint32(ptr noundef %0, i32 noundef %28, ptr noundef %2, ptr noundef %3, ptr noundef %4, ptr noundef %5, i32 noundef %29, ptr noundef null)
  %31 = load i32, ptr @hf_netlogon_reserved, align 4
  %32 = call i32 @dissect_ndr_uint32(ptr noundef %0, i32 noundef %30, ptr noundef %2, ptr noundef %3, ptr noundef %4, ptr noundef %5, i32 noundef %31, ptr noundef null)
  %33 = load i32, ptr @hf_netlogon_reserved, align 4
  %34 = call i32 @dissect_ndr_uint32(ptr noundef %0, i32 noundef %32, ptr noundef %2, ptr noundef %3, ptr noundef %4, ptr noundef %5, i32 noundef %33, ptr noundef null)
  %35 = load i32, ptr @hf_netlogon_reserved, align 4
  %36 = call i32 @dissect_ndr_uint32(ptr noundef %0, i32 noundef %34, ptr noundef %2, ptr noundef %3, ptr noundef %4, ptr noundef %5, i32 noundef %35, ptr noundef null)
  ret i32 %36
}